target datalayout = "e-m:e-p270:32:32-p271:32:32-p272:64:64-i64:64-i128:128-f80:128-n8:16:32:64-S128"
target triple = "x86_64-pc-linux-gnu"

%struct.DdManager = type { %struct.DdNode, ptr, ptr, ptr, ptr, ptr, ptr, ptr, i32, i32, double, double, double, i32, i32, i32, i32, i32, i32, ptr, ptr, %struct.DdSubtable, i32, i32, i32, i32, i32, i32, i32, double, i32, i32, i32, ptr, i64, double, i32, ptr, ptr, ptr, ptr, ptr, ptr, ptr, i32, ptr, ptr, ptr, ptr, ptr, ptr, i32, i32, i32, double, i32, i32, i32, i32, double, double, i32, i32, i32, i32, i32, i32, i32, i32, i32, ptr, ptr, i32, i32, i32, i32, i32, i32, ptr, ptr, ptr, ptr, ptr, ptr, ptr, ptr, i32, i64, i64, i64, i32, i64, i64, double, double, double, double, double, double, i32, ptr, ptr, i64 }
%struct.DdNode = type { i32, i32, ptr, %union.anon, i64 }
%union.anon = type { %struct.DdChildren }
%struct.DdChildren = type { ptr, ptr }
%struct.DdSubtable = type { ptr, i32, i32, i32, i32, i32, i32, i32, i32, i32, i32, i32 }

; Function Attrs: nounwind uwtable
define ptr @Extra_bddAndPermute(ptr noundef %0, ptr noundef %1, ptr noundef %2, ptr noundef %3, ptr noundef %4) #0 {
  %6 = alloca ptr, align 8
  %7 = alloca ptr, align 8
  %8 = alloca ptr, align 8
  %9 = alloca ptr, align 8
  %10 = alloca ptr, align 8
  %11 = alloca ptr, align 8
  %12 = alloca ptr, align 8
  %13 = alloca ptr, align 8
  %14 = alloca i32, align 4
  store ptr %0, ptr %7, align 8, !tbaa !3
  store ptr %1, ptr %8, align 8, !tbaa !8
  store ptr %2, ptr %9, align 8, !tbaa !3
  store ptr %3, ptr %10, align 8, !tbaa !8
  store ptr %4, ptr %11, align 8, !tbaa !10
  call void @llvm.lifetime.start.p0(i64 8, ptr %12) #10
  call void @llvm.lifetime.start.p0(i64 8, ptr %13) #10
  br label %15

15:                                               ; preds = %54, %5
  %16 = load ptr, ptr %7, align 8, !tbaa !3
  %17 = getelementptr inbounds nuw %struct.DdManager, ptr %16, i32 0, i32 55
  store i32 0, ptr %17, align 8, !tbaa !12
  %18 = load ptr, ptr %7, align 8, !tbaa !3
  %19 = call ptr @cuddHashTableInit(ptr noundef %18, i32 noundef 2, i32 noundef 256)
  store ptr %19, ptr %12, align 8, !tbaa !77
  %20 = load ptr, ptr %12, align 8, !tbaa !77
  %21 = icmp eq ptr %20, null
  br i1 %21, label %22, label %23

22:                                               ; preds = %15
  store ptr null, ptr %6, align 8
  store i32 1, ptr %14, align 4
  br label %61

23:                                               ; preds = %15
  %24 = load ptr, ptr %12, align 8, !tbaa !77
  %25 = load ptr, ptr %7, align 8, !tbaa !3
  %26 = load ptr, ptr %8, align 8, !tbaa !8
  %27 = load ptr, ptr %9, align 8, !tbaa !3
  %28 = load ptr, ptr %10, align 8, !tbaa !8
  %29 = load ptr, ptr %11, align 8, !tbaa !10
  %30 = call ptr @extraBddAndPermute(ptr noundef %24, ptr noundef %25, ptr noundef %26, ptr noundef %27, ptr noundef %28, ptr noundef %29)
  store ptr %30, ptr %13, align 8, !tbaa !8
  %31 = load ptr, ptr %13, align 8, !tbaa !8
  %32 = icmp ne ptr %31, null
  br i1 %32, label %33, label %41

33:                                               ; preds = %23
  %34 = load ptr, ptr %13, align 8, !tbaa !8
  %35 = ptrtoint ptr %34 to i64
  %36 = and i64 %35, -2
  %37 = inttoptr i64 %36 to ptr
  %38 = getelementptr inbounds nuw %struct.DdNode, ptr %37, i32 0, i32 1
  %39 = load i32, ptr %38, align 4, !tbaa !34
  %40 = add i32 %39, 1
  store i32 %40, ptr %38, align 4, !tbaa !34
  br label %41

41:                                               ; preds = %33, %23
  %42 = load ptr, ptr %12, align 8, !tbaa !77
  call void @cuddHashTableQuit(ptr noundef %42)
  %43 = load ptr, ptr %13, align 8, !tbaa !8
  %44 = icmp ne ptr %43, null
  br i1 %44, label %45, label %53

45:                                               ; preds = %41
  %46 = load ptr, ptr %13, align 8, !tbaa !8
  %47 = ptrtoint ptr %46 to i64
  %48 = and i64 %47, -2
  %49 = inttoptr i64 %48 to ptr
  %50 = getelementptr inbounds nuw %struct.DdNode, ptr %49, i32 0, i32 1
  %51 = load i32, ptr %50, align 4, !tbaa !34
  %52 = add i32 %51, -1
  store i32 %52, ptr %50, align 4, !tbaa !34
  br label %53

53:                                               ; preds = %45, %41
  br label %54

54:                                               ; preds = %53
  %55 = load ptr, ptr %7, align 8, !tbaa !3
  %56 = getelementptr inbounds nuw %struct.DdManager, ptr %55, i32 0, i32 55
  %57 = load i32, ptr %56, align 8, !tbaa !12
  %58 = icmp eq i32 %57, 1
  br i1 %58, label %15, label %59, !llvm.loop !86

59:                                               ; preds = %54
  %60 = load ptr, ptr %13, align 8, !tbaa !8
  store ptr %60, ptr %6, align 8
  store i32 1, ptr %14, align 4
  br label %61

61:                                               ; preds = %59, %22
  call void @llvm.lifetime.end.p0(i64 8, ptr %13) #10
  call void @llvm.lifetime.end.p0(i64 8, ptr %12) #10
  %62 = load ptr, ptr %6, align 8
  ret ptr %62
}