; Function Attrs: nounwind uwtable
define ptr @Extra_bddAndPermute(ptr noundef initializes((448, 452)) %0, ptr noundef %1, ptr noundef %2, ptr noundef %3, ptr noundef %4) local_unnamed_addr #0 {
  %6 = getelementptr inbounds nuw i8, ptr %0, i64 448
  br label %7

7:                                                ; preds = %21, %5
  store i32 0, ptr %6, align 8, !tbaa !3
  %8 = tail call ptr @cuddHashTableInit(ptr noundef %0, i32 noundef 2, i32 noundef 256) #19
  %9 = icmp eq ptr %8, null
  br i1 %9, label %24, label %10

10:                                               ; preds = %7
  %11 = tail call fastcc ptr @extraBddAndPermute(ptr noundef %8, ptr noundef nonnull %0, ptr noundef %1, ptr noundef %2, ptr noundef %3, ptr noundef %4)
  %.not = icmp eq ptr %11, null
  br i1 %.not, label %.critedge, label %12

12:                                               ; preds = %10
  %13 = ptrtoint ptr %11 to i64
  %14 = and i64 %13, -2
  %15 = inttoptr i64 %14 to ptr
  %16 = getelementptr inbounds nuw i8, ptr %15, i64 4
  %17 = load i32, ptr %16, align 4, !tbaa !24
  %18 = add i32 %17, 1
  store i32 %18, ptr %16, align 4, !tbaa !24
  tail call void @cuddHashTableQuit(ptr noundef nonnull %8) #19
  %19 = load i32, ptr %16, align 4, !tbaa !24
  %20 = add i32 %19, -1
  store i32 %20, ptr %16, align 4, !tbaa !24
  br label %21

.critedge:                                        ; preds = %10
  tail call void @cuddHashTableQuit(ptr noundef nonnull %8) #19
  br label %21

21:                                               ; preds = %.critedge, %12
  %22 = load i32, ptr %6, align 8, !tbaa !3
  %23 = icmp eq i32 %22, 1
  br i1 %23, label %7, label %24, !llvm.loop !70

24:                                               ; preds = %21, %7
  %.0 = phi ptr [ null, %7 ], [ %11, %21 ]
  ret ptr %.0
}